; Function Attrs: mustprogress nounwind uwtable
define dso_local void @_ZN4llvm18AArch64InstPrinter19printPostIncOperandEPKNS_6MCInstEjjRNS_11raw_ostreamE(ptr noundef nonnull align 8 dereferenceable(58) %0, ptr nocapture noundef readonly %1, i32 noundef %2, i32 noundef %3, ptr noundef nonnull align 8 dereferenceable(48) %4) local_unnamed_addr #1 align 2 {
  %6 = alloca %"class.llvm::MCInstPrinter::WithMarkup", align 8
  %7 = getelementptr inbounds nuw i8, ptr %1, i64 16
  %8 = zext i32 %2 to i64
  %9 = load ptr, ptr %7, align 8
  %10 = getelementptr inbounds %"class.llvm::MCOperand", ptr %9, i64 %8
  %11 = load i8, ptr %10, align 8
  %12 = icmp eq i8 %11, 1
  tail call void @llvm.assume(i1 %12)
  %13 = getelementptr inbounds nuw i8, ptr %10, i64 8
  %14 = load i32, ptr %13, align 8
  %15 = icmp eq i32 %14, 12
  br i1 %15, label %16, label %31

16:                                               ; preds = %5
  call void @_ZNK4llvm13MCInstPrinter6markupERNS_11raw_ostreamENS0_6MarkupE(ptr dead_on_unwind nonnull writable sret(%"class.llvm::MCInstPrinter::WithMarkup") align 8 %6, ptr noundef nonnull align 8 dereferenceable(58) %0, ptr noundef nonnull align 8 dereferenceable(48) %4, i32 noundef 0) #22
  %17 = load ptr, ptr %6, align 8
  %18 = getelementptr inbounds nuw i8, ptr %17, i64 24
  %19 = load ptr, ptr %18, align 8
  %20 = getelementptr inbounds nuw i8, ptr %17, i64 32
  %21 = load ptr, ptr %20, align 8
  %22 = icmp eq ptr %19, %21
  br i1 %22, label %23, label %25

23:                                               ; preds = %16
  %24 = call noundef nonnull align 8 dereferenceable(48) ptr @_ZN4llvm11raw_ostream5writeEPKcm(ptr noundef nonnull align 8 dereferenceable(48) %17, ptr noundef nonnull @.str.87, i64 noundef 1) #22
  br label %_ZN4llvm13MCInstPrinter10WithMarkuplsIA2_cEERS1_RKT_.exit

25:                                               ; preds = %16
  store i8 35, ptr %21, align 1
  %26 = load ptr, ptr %20, align 8
  %27 = getelementptr inbounds i8, ptr %26, i64 1
  store ptr %27, ptr %20, align 8
  br label %_ZN4llvm13MCInstPrinter10WithMarkuplsIA2_cEERS1_RKT_.exit

_ZN4llvm13MCInstPrinter10WithMarkuplsIA2_cEERS1_RKT_.exit: ; preds = %23, %25
  %28 = load ptr, ptr %6, align 8
  %29 = zext i32 %3 to i64
  %30 = call noundef nonnull align 8 dereferenceable(48) ptr @_ZN4llvm11raw_ostreamlsEm(ptr noundef nonnull align 8 dereferenceable(48) %28, i64 noundef %29) #22
  call void @_ZN4llvm13MCInstPrinter10WithMarkupD1Ev(ptr noundef nonnull align 8 dereferenceable(10) %6) #22
  br label %35

31:                                               ; preds = %5
  %32 = load ptr, ptr %0, align 8
  %33 = getelementptr inbounds i8, ptr %32, i64 40
  %34 = load ptr, ptr %33, align 8
  tail call void %34(ptr noundef nonnull align 8 dereferenceable(58) %0, ptr noundef nonnull align 8 dereferenceable(48) %4, i32 %14) #22
  br label %35

35:                                               ; preds = %_ZN4llvm13MCInstPrinter10WithMarkuplsIA2_cEERS1_RKT_.exit, %31
  ret void
}